; Function Attrs: mustprogress nounwind
define internal noundef i32 @_ZN4mold3elfL18release_input_fileINS0_5S390XEEENS_12PluginStatusEPKv(ptr nocapture noundef readonly %handle) #4 {
entry:
  %ref.tmp = alloca %"class.std::__cxx11::basic_ostringstream", align 8
  call void @_ZNSt7__cxx1119basic_ostringstreamIcSt11char_traitsIcESaIcEEC1Ev(ptr noundef nonnull align 8 dereferenceable(112) %ref.tmp) #19
  %call.i = call noundef nonnull align 8 dereferenceable(8) ptr @_ZStlsISt11char_traitsIcEERSt13basic_ostreamIcT_ES5_PKc(ptr noundef nonnull align 8 dereferenceable(8) %ref.tmp, ptr noundef nonnull @.str.58) #19
  call void @_ZNSt7__cxx1119basic_ostringstreamIcSt11char_traitsIcESaIcEED1Ev(ptr noundef nonnull align 8 dereferenceable(112) %ref.tmp) #19
  %mf = getelementptr inbounds i8, ptr %handle, i64 8
  %0 = load ptr, ptr %mf, align 8
  %fd = getelementptr inbounds i8, ptr %0, i64 72
  %1 = load i32, ptr %fd, align 8
  %cmp.not = icmp eq i32 %1, -1
  br i1 %cmp.not, label %if.end, label %if.then

if.then:                                          ; preds = %entry
  %call3 = call i32 @close(i32 noundef %1) #19
  %2 = load ptr, ptr %mf, align 8
  %fd5 = getelementptr inbounds i8, ptr %2, i64 72
  store i32 -1, ptr %fd5, align 8
  br label %if.end

if.end:                                           ; preds = %if.then, %entry
  ret i32 0
}